; Function Attrs: nounwind uwtable
define void @Gia_ManPrintSignals(ptr noundef readonly captures(none) %0, ptr noundef readonly captures(none) %1, ptr noundef %2) local_unnamed_addr #0 {
  %4 = tail call noalias dereferenceable_or_null(16) ptr @malloc(i64 noundef 16) #16
  %5 = getelementptr inbounds nuw i8, ptr %4, i64 4
  store i32 0, ptr %5, align 4, !tbaa !28
  store i32 100, ptr %4, align 8, !tbaa !33
  %6 = tail call noalias dereferenceable_or_null(400) ptr @malloc(i64 noundef 400) #16
  %7 = getelementptr inbounds nuw i8, ptr %4, i64 8
  store ptr %6, ptr %7, align 8, !tbaa !29
  %8 = getelementptr i8, ptr %0, i64 24
  %.val = load i32, ptr %8, align 8, !tbaa !34
  %9 = icmp sgt i32 %.val, 0
  br i1 %9, label %.lr.ph.preheader, label %._crit_edge

.lr.ph.preheader:                                 ; preds = %3
  %wide.trip.count = zext nneg i32 %.val to i64
  br label %.lr.ph

.lr.ph:                                           ; preds = %.lr.ph.preheader, %.lr.ph
  %indvars.iv = phi i64 [ 0, %.lr.ph.preheader ], [ %indvars.iv.next, %.lr.ph ]
  %.037 = phi i32 [ 0, %.lr.ph.preheader ], [ %.1, %.lr.ph ]
  %.02636 = phi i32 [ 0, %.lr.ph.preheader ], [ %.127, %.lr.ph ]
  %10 = getelementptr inbounds nuw i32, ptr %1, i64 %indvars.iv
  %11 = load i32, ptr %10, align 4, !tbaa !32
  %12 = icmp sgt i32 %11, 1
  %13 = zext i1 %12 to i32
  %.127 = add nuw nsw i32 %.02636, %13
  %14 = select i1 %12, i32 %11, i32 0
  %.1 = add nuw nsw i32 %14, %.037
  %indvars.iv.next = add nuw nsw i64 %indvars.iv, 1
  %exitcond.not = icmp eq i64 %indvars.iv.next, %wide.trip.count
  br i1 %exitcond.not, label %._crit_edge, label %.lr.ph, !llvm.loop !35

._crit_edge:                                      ; preds = %.lr.ph, %3
  %.026.lcssa = phi i32 [ 0, %3 ], [ %.127, %.lr.ph ]
  %.0.lcssa = phi i32 [ 0, %3 ], [ %.1, %.lr.ph ]
  %15 = tail call i32 (ptr, ...) @printf(ptr noundef nonnull dereferenceable(1) @.str, ptr noundef %2, i32 noundef %.026.lcssa, i32 noundef %.0.lcssa)
  %.val3139 = load i32, ptr %8, align 8, !tbaa !34
  %16 = icmp sgt i32 %.val3139, 0
  br i1 %16, label %.lr.ph43, label %._crit_edge44

.lr.ph43:                                         ; preds = %._crit_edge
  %17 = getelementptr i8, ptr %0, i64 144
  br label %18

18:                                               ; preds = %.lr.ph43, %50
  %.val3152 = phi i32 [ %.val3139, %.lr.ph43 ], [ %.val31, %50 ]
  %19 = phi ptr [ %6, %.lr.ph43 ], [ %.pre.i50, %50 ]
  %indvars.iv46 = phi i64 [ 0, %.lr.ph43 ], [ %indvars.iv.next47, %50 ]
  %.241 = phi i32 [ 0, %.lr.ph43 ], [ %.3, %50 ]
  %20 = getelementptr inbounds nuw i32, ptr %1, i64 %indvars.iv46
  %21 = load i32, ptr %20, align 4, !tbaa !32
  %22 = icmp sgt i32 %21, 10
  br i1 %22, label %23, label %50

23:                                               ; preds = %18
  %24 = add nsw i32 %.241, 1
  %.val34 = load ptr, ptr %17, align 8, !tbaa !36
  %sext.i = shl nuw nsw i64 %indvars.iv46, 2
  %25 = getelementptr inbounds nuw i8, ptr %.val34, i64 %sext.i
  %26 = load i32, ptr %25, align 4, !tbaa !32
  %27 = trunc nuw nsw i64 %indvars.iv46 to i32
  %28 = tail call i32 (ptr, ...) @printf(ptr noundef nonnull dereferenceable(1) @.str.1, i32 noundef %24, i32 noundef %27, i32 noundef %26, i32 noundef %21)
  %29 = load i32, ptr %5, align 4, !tbaa !28
  %30 = load i32, ptr %4, align 8, !tbaa !33
  %31 = icmp eq i32 %29, %30
  br i1 %31, label %32, label %Vec_IntPush.exit

32:                                               ; preds = %23
  %33 = icmp slt i32 %29, 16
  br i1 %33, label %34, label %39

34:                                               ; preds = %32
  %.not9.i.i = icmp eq ptr %19, null
  br i1 %.not9.i.i, label %37, label %35

35:                                               ; preds = %34
  %36 = tail call dereferenceable_or_null(64) ptr @realloc(ptr noundef nonnull %19, i64 noundef 64) #15
  br label %Vec_IntPush.exit.sink.split

37:                                               ; preds = %34
  %38 = tail call noalias dereferenceable_or_null(64) ptr @malloc(i64 noundef 64) #16
  br label %Vec_IntPush.exit.sink.split

39:                                               ; preds = %32
  %40 = shl nuw nsw i32 %29, 1
  %.not9.i9.i = icmp eq ptr %19, null
  %41 = zext nneg i32 %40 to i64
  %42 = shl nuw nsw i64 %41, 2
  br i1 %.not9.i9.i, label %45, label %43

43:                                               ; preds = %39
  %44 = tail call ptr @realloc(ptr noundef nonnull %19, i64 noundef %42) #15
  br label %Vec_IntPush.exit.sink.split

45:                                               ; preds = %39
  %46 = tail call noalias ptr @malloc(i64 noundef %42) #16
  br label %Vec_IntPush.exit.sink.split

Vec_IntPush.exit.sink.split:                      ; preds = %43, %45, %35, %37
  %.sink54 = phi ptr [ %36, %35 ], [ %38, %37 ], [ %44, %43 ], [ %46, %45 ]
  %.sink = phi i32 [ 16, %35 ], [ 16, %37 ], [ %40, %43 ], [ %40, %45 ]
  store ptr %.sink54, ptr %7, align 8, !tbaa !29
  store i32 %.sink, ptr %4, align 8, !tbaa !33
  br label %Vec_IntPush.exit

Vec_IntPush.exit:                                 ; preds = %Vec_IntPush.exit.sink.split, %23
  %.pre.i51 = phi ptr [ %19, %23 ], [ %.sink54, %Vec_IntPush.exit.sink.split ]
  %47 = add nsw i32 %29, 1
  store i32 %47, ptr %5, align 4, !tbaa !28
  %48 = sext i32 %29 to i64
  %49 = getelementptr inbounds i32, ptr %.pre.i51, i64 %48
  store i32 %27, ptr %49, align 4, !tbaa !32
  %.val31.pre = load i32, ptr %8, align 8, !tbaa !34
  br label %50

50:                                               ; preds = %18, %Vec_IntPush.exit
  %.val31 = phi i32 [ %.val31.pre, %Vec_IntPush.exit ], [ %.val3152, %18 ]
  %.pre.i50 = phi ptr [ %.pre.i51, %Vec_IntPush.exit ], [ %19, %18 ]
  %.3 = phi i32 [ %24, %Vec_IntPush.exit ], [ %.241, %18 ]
  %indvars.iv.next47 = add nuw nsw i64 %indvars.iv46, 1
  %51 = sext i32 %.val31 to i64
  %52 = icmp slt i64 %indvars.iv.next47, %51
  br i1 %52, label %18, label %._crit_edge44, !llvm.loop !37

._crit_edge44:                                    ; preds = %50, %._crit_edge
  %53 = phi ptr [ %6, %._crit_edge ], [ %.pre.i50, %50 ]
  %.not.i = icmp eq ptr %53, null
  br i1 %.not.i, label %Vec_IntFree.exit, label %54

54:                                               ; preds = %._crit_edge44
  tail call void @free(ptr noundef nonnull %53) #17
  br label %Vec_IntFree.exit

Vec_IntFree.exit:                                 ; preds = %._crit_edge44, %54
  tail call void @free(ptr noundef nonnull %4) #17
  ret void
}